target datalayout = "e-m:e-p270:32:32-p271:32:32-p272:64:64-i64:64-i128:128-f80:128-n8:16:32:64-S128"
target triple = "x86_64-pc-linux-gnu"

%"class.google::protobuf::MessageLite" = type { ptr, %"class.google::protobuf::internal::InternalMetadata" }
%"class.google::protobuf::internal::InternalMetadata" = type { ptr }
%"class.google::protobuf::internal::HasBits" = type { [1 x i32] }
%"class.google::protobuf::internal::CachedSize" = type { %"struct.std::atomic" }
%"struct.std::atomic" = type { %"struct.std::__atomic_base" }
%"struct.std::__atomic_base" = type { i32 }
%"struct.google::protobuf::internal::ArenaStringPtr" = type { ptr }
%"struct.google::protobuf::internal::InternalMetadata::Container" = type { %"struct.google::protobuf::internal::InternalMetadata::ContainerBase", %"class.std::__cxx11::basic_string" }
%"struct.google::protobuf::internal::InternalMetadata::ContainerBase" = type { ptr }
%"class.std::__cxx11::basic_string" = type { %"struct.std::__cxx11::basic_string<char>::_Alloc_hider", i64, %union.anon }
%"struct.std::__cxx11::basic_string<char>::_Alloc_hider" = type { ptr }
%union.anon = type { i64, [8 x i8] }
%"class.i18n::phonenumbers::PhoneNumberDesc" = type { %"class.google::protobuf::MessageLite", %"class.google::protobuf::internal::HasBits", %"class.google::protobuf::internal::CachedSize", %"class.google::protobuf::RepeatedField", %"class.google::protobuf::RepeatedField", %"struct.google::protobuf::internal::ArenaStringPtr", %"struct.google::protobuf::internal::ArenaStringPtr" }
%"class.google::protobuf::RepeatedField" = type { i32, i32, ptr }
%"class.google::protobuf::Arena" = type { %"class.google::protobuf::internal::ArenaImpl", ptr, ptr, ptr, ptr }
%"class.google::protobuf::internal::ArenaImpl" = type { %"struct.std::atomic.9", %"struct.std::atomic.9", %"struct.std::atomic.11", ptr, i64, %"struct.google::protobuf::internal::ArenaImpl::Options" }
%"struct.std::atomic.9" = type { %"struct.std::__atomic_base.10" }
%"struct.std::__atomic_base.10" = type { ptr }
%"struct.std::atomic.11" = type { %"struct.std::__atomic_base.12" }
%"struct.std::__atomic_base.12" = type { i64 }
%"struct.google::protobuf::internal::ArenaImpl::Options" = type { i64, i64, ptr, i64, ptr, ptr }

; Function Attrs: mustprogress uwtable
define linkonce_odr dso_local void @_ZNK6google8protobuf5Arena9AllocHookEPKSt9type_infom(ptr noundef nonnull align 8 dereferenceable(120) %0, ptr noundef %1, i64 noundef %2) #4 comdat align 2 {
  %4 = alloca ptr, align 8
  %5 = alloca ptr, align 8
  %6 = alloca i64, align 8
  store ptr %0, ptr %4, align 8
  store ptr %1, ptr %5, align 8
  store i64 %2, ptr %6, align 8
  %7 = load ptr, ptr %4, align 8
  %8 = getelementptr inbounds %"class.google::protobuf::Arena", ptr %7, i32 0, i32 4
  %9 = load ptr, ptr %8, align 8
  %10 = icmp ne ptr %9, null
  br i1 %10, label %11, label %14

11:                                               ; preds = %3
  %12 = load ptr, ptr %5, align 8
  %13 = load i64, ptr %6, align 8
  call void @_ZNK6google8protobuf5Arena17OnArenaAllocationEPKSt9type_infom(ptr noundef nonnull align 8 dereferenceable(120) %7, ptr noundef %12, i64 noundef %13)
  br label %14

14:                                               ; preds = %11, %3
  ret void
}

; Function Attrs: mustprogress nounwind uwtable
define linkonce_odr dso_local noundef i64 @_ZN6google8protobuf8internal10AlignUpTo8Em(i64 noundef %0) #5 comdat {
  %2 = alloca i64, align 8
  store i64 %0, ptr %2, align 8
  %3 = load i64, ptr %2, align 8
  %4 = add i64 %3, 7
  %5 = and i64 %4, -8
  ret i64 %5
}

; Function Attrs: mustprogress nounwind uwtable
define linkonce_odr dso_local void @_ZN6google8protobuf8internal16InternalMetadata9ContainerINSt7__cxx1112basic_stringIcSt11char_traitsIcESaIcEEEEC2Ev(ptr noundef nonnull align 8 dereferenceable(40) %0) unnamed_addr #5 comdat align 2 {
  %2 = alloca ptr, align 8
  store ptr %0, ptr %2, align 8
  %3 = load ptr, ptr %2, align 8
  %4 = getelementptr inbounds %"struct.google::protobuf::internal::InternalMetadata::Container", ptr %3, i32 0, i32 1
  call void @_ZNSt7__cxx1112basic_stringIcSt11char_traitsIcESaIcEEC1Ev(ptr noundef nonnull align 8 dereferenceable(32) %4) #3
  ret void
}

; Function Attrs: mustprogress nounwind uwtable
define linkonce_odr dso_local noundef ptr @_ZNK6google8protobuf8internal16InternalMetadata8PtrValueINS0_5ArenaEEEPT_v(ptr noundef nonnull align 8 dereferenceable(8) %0) #5 comdat align 2 {
  %2 = alloca ptr, align 8
  store ptr %0, ptr %2, align 8
  %3 = load ptr, ptr %2, align 8
  %4 = getelementptr inbounds %"class.google::protobuf::internal::InternalMetadata", ptr %3, i32 0, i32 0
  %5 = load ptr, ptr %4, align 8
  %6 = ptrtoint ptr %5 to i64
  %7 = and i64 %6, -2
  %8 = inttoptr i64 %7 to ptr
  ret ptr %8
}

; Function Attrs: mustprogress nounwind uwtable
define linkonce_odr dso_local noundef ptr @_ZNK6google8protobuf8internal16InternalMetadata8PtrValueINS2_13ContainerBaseEEEPT_v(ptr noundef nonnull align 8 dereferenceable(8) %0) #5 comdat align 2 {
  %2 = alloca ptr, align 8
  store ptr %0, ptr %2, align 8
  %3 = load ptr, ptr %2, align 8
  %4 = getelementptr inbounds %"class.google::protobuf::internal::InternalMetadata", ptr %3, i32 0, i32 0
  %5 = load ptr, ptr %4, align 8
  %6 = ptrtoint ptr %5 to i64
  %7 = and i64 %6, -2
  %8 = inttoptr i64 %7 to ptr
  ret ptr %8
}

; Function Attrs: mustprogress uwtable
define linkonce_odr dso_local noundef ptr @_ZN6google8protobuf8internal16InternalMetadata27mutable_unknown_fields_slowINSt7__cxx1112basic_stringIcSt11char_traitsIcESaIcEEEEEPT_v(ptr noundef nonnull align 8 dereferenceable(8) %0) #4 comdat align 2 {
  %2 = alloca ptr, align 8
  %3 = alloca ptr, align 8
  %4 = alloca i8, align 1
  %5 = alloca i64, align 8
  %6 = alloca ptr, align 8
  %7 = alloca i8, align 1
  %8 = alloca ptr, align 8
  %9 = alloca ptr, align 8
  %10 = alloca ptr, align 8
  %11 = alloca ptr, align 8
  %12 = alloca ptr, align 8
  %13 = alloca ptr, align 8
  %14 = alloca ptr, align 8
  %15 = alloca ptr, align 8
  %16 = alloca ptr, align 8
  %17 = alloca ptr, align 8
  %18 = alloca ptr, align 8
  %19 = alloca ptr, align 8
  %20 = alloca ptr, align 8
  store ptr %0, ptr %18, align 8
  %21 = load ptr, ptr %18, align 8
  store ptr %21, ptr %17, align 8
  %22 = load ptr, ptr %17, align 8
  store ptr %22, ptr %15, align 8
  %23 = load ptr, ptr %15, align 8
  store ptr %23, ptr %14, align 8
  %24 = load ptr, ptr %14, align 8
  %25 = load ptr, ptr %24, align 8
  %26 = ptrtoint ptr %25 to i64
  %27 = and i64 %26, 1
  %28 = trunc i64 %27 to i32
  %29 = icmp eq i32 %28, 1
  br i1 %29, label %30, label %33

30:                                               ; preds = %1
  %31 = call noundef ptr @_ZNK6google8protobuf8internal16InternalMetadata8PtrValueINS2_13ContainerBaseEEEPT_v(ptr noundef nonnull align 8 dereferenceable(8) %22)
  %32 = load ptr, ptr %31, align 8
  store ptr %32, ptr %16, align 8
  br label %35

33:                                               ; preds = %1
  %34 = call noundef ptr @_ZNK6google8protobuf8internal16InternalMetadata8PtrValueINS0_5ArenaEEEPT_v(ptr noundef nonnull align 8 dereferenceable(8) %22)
  store ptr %34, ptr %16, align 8
  br label %35

35:                                               ; preds = %33, %30
  %36 = load ptr, ptr %16, align 8
  store ptr %36, ptr %19, align 8
  %37 = load ptr, ptr %19, align 8
  store ptr %37, ptr %13, align 8
  %38 = load ptr, ptr %13, align 8
  store ptr %38, ptr %12, align 8
  %39 = load ptr, ptr %12, align 8
  store ptr %39, ptr %11, align 8
  %40 = load ptr, ptr %11, align 8
  store ptr %40, ptr %10, align 8
  %41 = load ptr, ptr %10, align 8
  store ptr %41, ptr %9, align 8
  %42 = load ptr, ptr %9, align 8
  %43 = icmp eq ptr %42, null
  br i1 %43, label %44, label %46

44:                                               ; preds = %35
  %45 = call noalias noundef nonnull ptr @_Znwm(i64 noundef 40) #18
  call void @llvm.memset.p0.i64(ptr align 16 %45, i8 0, i64 40, i1 false)
  call void @_ZN6google8protobuf8internal16InternalMetadata9ContainerINSt7__cxx1112basic_stringIcSt11char_traitsIcESaIcEEEEC2Ev(ptr noundef nonnull align 8 dereferenceable(40) %45) #3
  store ptr %45, ptr %8, align 8
  br label %65

46:                                               ; preds = %35
  %47 = load ptr, ptr %9, align 8
  store ptr %47, ptr %6, align 8
  store i8 0, ptr %7, align 1
  %48 = load ptr, ptr %6, align 8
  %49 = load i8, ptr %7, align 1
  %50 = trunc i8 %49 to i1
  store ptr %48, ptr %3, align 8
  %51 = zext i1 %50 to i8
  store i8 %51, ptr %4, align 1
  %52 = load ptr, ptr %3, align 8
  %53 = call noundef i64 @_ZN6google8protobuf8internal10AlignUpTo8Em(i64 noundef 40)
  store i64 %53, ptr %5, align 8
  %54 = load i64, ptr %5, align 8
  call void @_ZNK6google8protobuf5Arena9AllocHookEPKSt9type_infom(ptr noundef nonnull align 8 dereferenceable(120) %52, ptr noundef @_ZTIN6google8protobuf8internal16InternalMetadata9ContainerINSt7__cxx1112basic_stringIcSt11char_traitsIcESaIcEEEEE, i64 noundef %54)
  %55 = load i8, ptr %4, align 1
  %56 = trunc i8 %55 to i1
  br i1 %56, label %57, label %60

57:                                               ; preds = %46
  %58 = load i64, ptr %5, align 8
  %59 = call noundef ptr @_ZN6google8protobuf5Arena21AllocateAlignedNoHookEm(ptr noundef nonnull align 8 dereferenceable(120) %52, i64 noundef %58)
  store ptr %59, ptr %2, align 8
  br label %63

60:                                               ; preds = %46
  %61 = load i64, ptr %5, align 8
  %62 = call noundef ptr @_ZN6google8protobuf8internal9ArenaImpl28AllocateAlignedAndAddCleanupEmPFvPvE(ptr noundef nonnull align 8 dereferenceable(88) %52, i64 noundef %61, ptr noundef @_ZN6google8protobuf8internal21arena_destruct_objectINS1_16InternalMetadata9ContainerINSt7__cxx1112basic_stringIcSt11char_traitsIcESaIcEEEEEEEvPv)
  store ptr %62, ptr %2, align 8
  br label %63

63:                                               ; preds = %60, %57
  %64 = load ptr, ptr %2, align 8
  call void @llvm.memset.p0.i64(ptr align 8 %64, i8 0, i64 40, i1 false)
  call void @_ZN6google8protobuf8internal16InternalMetadata9ContainerINSt7__cxx1112basic_stringIcSt11char_traitsIcESaIcEEEEC2Ev(ptr noundef nonnull align 8 dereferenceable(40) %64) #3
  store ptr %64, ptr %8, align 8
  br label %65

65:                                               ; preds = %63, %44
  %66 = load ptr, ptr %8, align 8
  store ptr %66, ptr %20, align 8
  %67 = load ptr, ptr %20, align 8
  %68 = getelementptr inbounds %"class.google::protobuf::internal::InternalMetadata", ptr %21, i32 0, i32 0
  store ptr %67, ptr %68, align 8
  %69 = getelementptr inbounds %"class.google::protobuf::internal::InternalMetadata", ptr %21, i32 0, i32 0
  %70 = load ptr, ptr %69, align 8
  %71 = ptrtoint ptr %70 to i64
  %72 = or i64 %71, 1
  %73 = inttoptr i64 %72 to ptr
  %74 = getelementptr inbounds %"class.google::protobuf::internal::InternalMetadata", ptr %21, i32 0, i32 0
  store ptr %73, ptr %74, align 8
  %75 = load ptr, ptr %19, align 8
  %76 = load ptr, ptr %20, align 8
  %77 = getelementptr inbounds %"struct.google::protobuf::internal::InternalMetadata::ContainerBase", ptr %76, i32 0, i32 0
  store ptr %75, ptr %77, align 8
  %78 = load ptr, ptr %20, align 8
  %79 = getelementptr inbounds %"struct.google::protobuf::internal::InternalMetadata::Container", ptr %78, i32 0, i32 1
  ret ptr %79
}

; Function Attrs: mustprogress nounwind uwtable
define linkonce_odr dso_local noundef ptr @_ZNK6google8protobuf8internal16InternalMetadata8PtrValueINS2_9ContainerINSt7__cxx1112basic_stringIcSt11char_traitsIcESaIcEEEEEEEPT_v(ptr noundef nonnull align 8 dereferenceable(8) %0) #5 comdat align 2 {
  %2 = alloca ptr, align 8
  store ptr %0, ptr %2, align 8
  %3 = load ptr, ptr %2, align 8
  %4 = getelementptr inbounds %"class.google::protobuf::internal::InternalMetadata", ptr %3, i32 0, i32 0
  %5 = load ptr, ptr %4, align 8
  %6 = ptrtoint ptr %5 to i64
  %7 = and i64 %6, -2
  %8 = inttoptr i64 %7 to ptr
  ret ptr %8
}

; Function Attrs: mustprogress uwtable
define linkonce_odr dso_local void @_ZN6google8protobuf8internal16InternalMetadata7DoClearINSt7__cxx1112basic_stringIcSt11char_traitsIcESaIcEEEEEvv(ptr noundef nonnull align 8 dereferenceable(8) %0) #4 comdat align 2 {
  %2 = alloca ptr, align 8
  %3 = alloca ptr, align 8
  %4 = alloca ptr, align 8
  %5 = alloca ptr, align 8
  %6 = alloca ptr, align 8
  store ptr %0, ptr %6, align 8
  %7 = load ptr, ptr %6, align 8
  store ptr %7, ptr %5, align 8
  %8 = load ptr, ptr %5, align 8
  store ptr %8, ptr %3, align 8
  %9 = load ptr, ptr %3, align 8
  store ptr %9, ptr %2, align 8
  %10 = load ptr, ptr %2, align 8
  %11 = load ptr, ptr %10, align 8
  %12 = ptrtoint ptr %11 to i64
  %13 = and i64 %12, 1
  %14 = trunc i64 %13 to i32
  %15 = icmp eq i32 %14, 1
  br i1 %15, label %16, label %19

16:                                               ; preds = %1
  %17 = call noundef ptr @_ZNK6google8protobuf8internal16InternalMetadata8PtrValueINS2_9ContainerINSt7__cxx1112basic_stringIcSt11char_traitsIcESaIcEEEEEEEPT_v(ptr noundef nonnull align 8 dereferenceable(8) %8)
  %18 = getelementptr inbounds %"struct.google::protobuf::internal::InternalMetadata::Container", ptr %17, i32 0, i32 1
  store ptr %18, ptr %4, align 8
  br label %21

19:                                               ; preds = %1
  %20 = call noundef ptr @_ZN6google8protobuf8internal16InternalMetadata27mutable_unknown_fields_slowINSt7__cxx1112basic_stringIcSt11char_traitsIcESaIcEEEEEPT_v(ptr noundef nonnull align 8 dereferenceable(8) %8)
  store ptr %20, ptr %4, align 8
  br label %21

21:                                               ; preds = %19, %16
  %22 = load ptr, ptr %4, align 8
  call void @_ZNSt7__cxx1112basic_stringIcSt11char_traitsIcESaIcEE5clearEv(ptr noundef nonnull align 8 dereferenceable(32) %22) #3
  ret void
}

; Function Attrs: mustprogress nounwind uwtable
define linkonce_odr dso_local void @_ZN6google8protobuf8internal14ArenaStringPtr22ClearNonDefaultToEmptyEv(ptr noundef nonnull align 8 dereferenceable(8) %0) #5 comdat align 2 {
  %2 = alloca ptr, align 8
  store ptr %0, ptr %2, align 8
  %3 = load ptr, ptr %2, align 8
  %4 = getelementptr inbounds %"struct.google::protobuf::internal::ArenaStringPtr", ptr %3, i32 0, i32 0
  %5 = load ptr, ptr %4, align 8
  call void @_ZNSt7__cxx1112basic_stringIcSt11char_traitsIcESaIcEE5clearEv(ptr noundef nonnull align 8 dereferenceable(32) %5) #3
  ret void
}

; Function Attrs: mustprogress uwtable
define dso_local void @_ZN4i18n12phonenumbers15PhoneNumberDesc5ClearEv(ptr noundef nonnull align 8 dereferenceable(72) %0) unnamed_addr #4 align 2 {
  %2 = alloca ptr, align 8
  %3 = alloca ptr, align 8
  %4 = alloca ptr, align 8
  %5 = alloca ptr, align 8
  %6 = alloca ptr, align 8
  %7 = alloca i32, align 4
  %8 = alloca ptr, align 8
  %9 = alloca i32, align 4
  store ptr %0, ptr %8, align 8
  %10 = load ptr, ptr %8, align 8
  store i32 0, ptr %9, align 4
  %11 = getelementptr inbounds %"class.i18n::phonenumbers::PhoneNumberDesc", ptr %10, i32 0, i32 3
  call void @_ZN6google8protobuf13RepeatedFieldIiE5ClearEv(ptr noundef nonnull align 8 dereferenceable(16) %11)
  %12 = getelementptr inbounds %"class.i18n::phonenumbers::PhoneNumberDesc", ptr %10, i32 0, i32 4
  call void @_ZN6google8protobuf13RepeatedFieldIiE5ClearEv(ptr noundef nonnull align 8 dereferenceable(16) %12)
  %13 = getelementptr inbounds %"class.i18n::phonenumbers::PhoneNumberDesc", ptr %10, i32 0, i32 1
  store ptr %13, ptr %6, align 8
  store i32 0, ptr %7, align 4
  %14 = load ptr, ptr %6, align 8
  %15 = load i32, ptr %7, align 4
  %16 = sext i32 %15 to i64
  %17 = getelementptr inbounds [1 x i32], ptr %14, i64 0, i64 %16
  %18 = load i32, ptr %17, align 4
  store i32 %18, ptr %9, align 4
  %19 = load i32, ptr %9, align 4
  %20 = and i32 %19, 3
  %21 = icmp ne i32 %20, 0
  br i1 %21, label %22, label %35

22:                                               ; preds = %1
  %23 = load i32, ptr %9, align 4
  %24 = and i32 %23, 1
  %25 = icmp ne i32 %24, 0
  br i1 %25, label %26, label %28

26:                                               ; preds = %22
  %27 = getelementptr inbounds %"class.i18n::phonenumbers::PhoneNumberDesc", ptr %10, i32 0, i32 5
  call void @_ZN6google8protobuf8internal14ArenaStringPtr22ClearNonDefaultToEmptyEv(ptr noundef nonnull align 8 dereferenceable(8) %27)
  br label %28

28:                                               ; preds = %26, %22
  %29 = load i32, ptr %9, align 4
  %30 = and i32 %29, 2
  %31 = icmp ne i32 %30, 0
  br i1 %31, label %32, label %34

32:                                               ; preds = %28
  %33 = getelementptr inbounds %"class.i18n::phonenumbers::PhoneNumberDesc", ptr %10, i32 0, i32 6
  call void @_ZN6google8protobuf8internal14ArenaStringPtr22ClearNonDefaultToEmptyEv(ptr noundef nonnull align 8 dereferenceable(8) %33)
  br label %34

34:                                               ; preds = %32, %28
  br label %35

35:                                               ; preds = %34, %1
  %36 = getelementptr inbounds %"class.i18n::phonenumbers::PhoneNumberDesc", ptr %10, i32 0, i32 1
  store ptr %36, ptr %5, align 8
  %37 = load ptr, ptr %5, align 8
  call void @llvm.memset.p0.i64(ptr align 4 %37, i8 0, i64 4, i1 false)
  %38 = getelementptr inbounds %"class.google::protobuf::MessageLite", ptr %10, i32 0, i32 1
  store ptr %38, ptr %4, align 8
  %39 = load ptr, ptr %4, align 8
  store ptr %39, ptr %3, align 8
  %40 = load ptr, ptr %3, align 8
  store ptr %40, ptr %2, align 8
  %41 = load ptr, ptr %2, align 8
  %42 = load ptr, ptr %41, align 8
  %43 = ptrtoint ptr %42 to i64
  %44 = and i64 %43, 1
  %45 = trunc i64 %44 to i32
  %46 = icmp eq i32 %45, 1
  br i1 %46, label %47, label %48

47:                                               ; preds = %35
  call void @_ZN6google8protobuf8internal16InternalMetadata7DoClearINSt7__cxx1112basic_stringIcSt11char_traitsIcESaIcEEEEEvv(ptr noundef nonnull align 8 dereferenceable(8) %39)
  br label %48

48:                                               ; preds = %47, %35
  ret void
}