; Function Attrs: mustprogress uwtable
define dso_local void @_ZN4i18n12phonenumbers15PhoneNumberDesc5ClearEv(ptr noundef nonnull align 8 dereferenceable(72) %0) unnamed_addr #3 align 2 {
  %2 = getelementptr inbounds i8, ptr %0, i64 24
  tail call void @_ZN6google8protobuf13RepeatedFieldIiE5ClearEv(ptr noundef nonnull align 8 dereferenceable(16) %2)
  %3 = getelementptr inbounds i8, ptr %0, i64 40
  tail call void @_ZN6google8protobuf13RepeatedFieldIiE5ClearEv(ptr noundef nonnull align 8 dereferenceable(16) %3)
  %4 = getelementptr inbounds i8, ptr %0, i64 16
  %5 = load i32, ptr %4, align 8
  %6 = and i32 %5, 3
  %.not = icmp eq i32 %6, 0
  br i1 %.not, label %17, label %7

7:                                                ; preds = %1
  %8 = and i32 %5, 1
  %.not9 = icmp eq i32 %8, 0
  br i1 %.not9, label %12, label %9

9:                                                ; preds = %7
  %10 = getelementptr inbounds i8, ptr %0, i64 56
  %11 = load ptr, ptr %10, align 8
  tail call void @_ZNSt7__cxx1112basic_stringIcSt11char_traitsIcESaIcEE5clearEv(ptr noundef nonnull align 8 dereferenceable(32) %11) #21
  br label %12

12:                                               ; preds = %9, %7
  %13 = and i32 %5, 2
  %.not10 = icmp eq i32 %13, 0
  br i1 %.not10, label %17, label %14

14:                                               ; preds = %12
  %15 = getelementptr inbounds i8, ptr %0, i64 64
  %16 = load ptr, ptr %15, align 8
  tail call void @_ZNSt7__cxx1112basic_stringIcSt11char_traitsIcESaIcEE5clearEv(ptr noundef nonnull align 8 dereferenceable(32) %16) #21
  br label %17

17:                                               ; preds = %12, %14, %1
  store i32 0, ptr %4, align 8
  %18 = getelementptr inbounds i8, ptr %0, i64 8
  %19 = load ptr, ptr %18, align 8
  %20 = ptrtoint ptr %19 to i64
  %21 = and i64 %20, 1
  %.not11 = icmp eq i64 %21, 0
  br i1 %.not11, label %25, label %_ZN6google8protobuf8internal16InternalMetadata7DoClearINSt7__cxx1112basic_stringIcSt11char_traitsIcESaIcEEEEEvv.exit

_ZN6google8protobuf8internal16InternalMetadata7DoClearINSt7__cxx1112basic_stringIcSt11char_traitsIcESaIcEEEEEvv.exit: ; preds = %17
  %22 = and i64 %20, -2
  %23 = inttoptr i64 %22 to ptr
  %24 = getelementptr inbounds i8, ptr %23, i64 8
  tail call void @_ZNSt7__cxx1112basic_stringIcSt11char_traitsIcESaIcEE5clearEv(ptr noundef nonnull align 8 dereferenceable(32) %24) #21
  br label %25

25:                                               ; preds = %_ZN6google8protobuf8internal16InternalMetadata7DoClearINSt7__cxx1112basic_stringIcSt11char_traitsIcESaIcEEEEEvv.exit, %17
  ret void
}